target datalayout = "e-m:e-p270:32:32-p271:32:32-p272:64:64-i64:64-i128:128-f80:128-n8:16:32:64-S128"
target triple = "x86_64-pc-linux-gnu"

%struct.redisOptions = type { i32, i32, ptr, ptr, %union.anon, ptr, ptr, ptr, ptr }
%union.anon = type { %struct.anon.1 }
%struct.anon.1 = type { ptr, ptr, i32 }

; Function Attrs: nounwind uwtable
define ptr @redisConnectBindNonBlockWithReuse(ptr noundef %0, i32 noundef %1, ptr noundef %2) #0 {
  %4 = alloca ptr, align 8
  %5 = alloca i32, align 4
  %6 = alloca ptr, align 8
  %7 = alloca %struct.redisOptions, align 8
  store ptr %0, ptr %4, align 8, !tbaa !26
  store i32 %1, ptr %5, align 4, !tbaa !29
  store ptr %2, ptr %6, align 8, !tbaa !26
  call void @llvm.lifetime.start.p0(i64 80, ptr %7) #10
  call void @llvm.memset.p0.i64(ptr align 8 %7, i8 0, i64 80, i1 false)
  br label %8

8:                                                ; preds = %3
  %9 = getelementptr inbounds nuw %struct.redisOptions, ptr %7, i32 0, i32 0
  store i32 0, ptr %9, align 8, !tbaa !76
  %10 = load ptr, ptr %4, align 8, !tbaa !26
  %11 = getelementptr inbounds nuw %struct.redisOptions, ptr %7, i32 0, i32 4
  %12 = getelementptr inbounds nuw %struct.anon.1, ptr %11, i32 0, i32 1
  store ptr %10, ptr %12, align 8, !tbaa !30
  %13 = load i32, ptr %5, align 4, !tbaa !29
  %14 = getelementptr inbounds nuw %struct.redisOptions, ptr %7, i32 0, i32 4
  %15 = getelementptr inbounds nuw %struct.anon.1, ptr %14, i32 0, i32 2
  store i32 %13, ptr %15, align 8, !tbaa !30
  br label %16

16:                                               ; preds = %8
  br label %17

17:                                               ; preds = %16
  %18 = load ptr, ptr %6, align 8, !tbaa !26
  %19 = getelementptr inbounds nuw %struct.redisOptions, ptr %7, i32 0, i32 4
  %20 = getelementptr inbounds nuw %struct.anon.1, ptr %19, i32 0, i32 0
  store ptr %18, ptr %20, align 8, !tbaa !30
  %21 = getelementptr inbounds nuw %struct.redisOptions, ptr %7, i32 0, i32 1
  %22 = load i32, ptr %21, align 4, !tbaa !69
  %23 = or i32 %22, 3
  store i32 %23, ptr %21, align 4, !tbaa !69
  %24 = call ptr @redisConnectWithOptions(ptr noundef %7)
  call void @llvm.lifetime.end.p0(i64 80, ptr %7) #10
  ret ptr %24
}