; Function Attrs: nounwind uwtable
define ptr @redisConnectBindNonBlockWithReuse(ptr noundef %0, i32 noundef %1, ptr noundef %2) local_unnamed_addr #0 {
  %4 = alloca %struct.redisOptions, align 8
  call void @llvm.lifetime.start.p0(i64 80, ptr nonnull %4) #13
  %5 = getelementptr inbounds nuw i8, ptr %4, i64 24
  %6 = getelementptr inbounds nuw i8, ptr %4, i64 32
  call void @llvm.memset.p0.i64(ptr noundef nonnull align 8 dereferenceable(80) %4, i8 0, i64 80, i1 false)
  store ptr %0, ptr %6, align 8, !tbaa !22
  %7 = getelementptr inbounds nuw i8, ptr %4, i64 40
  store i32 %1, ptr %7, align 8, !tbaa !22
  store ptr %2, ptr %5, align 8, !tbaa !22
  %8 = getelementptr inbounds nuw i8, ptr %4, i64 4
  store i32 3, ptr %8, align 4, !tbaa !60
  %9 = call ptr @redisConnectWithOptions(ptr noundef nonnull %4)
  call void @llvm.lifetime.end.p0(i64 80, ptr nonnull %4) #13
  ret ptr %9
}